target datalayout = "e-m:e-p270:32:32-p271:32:32-p272:64:64-i64:64-i128:128-f80:128-n8:16:32:64-S128"
target triple = "x86_64-pc-linux-gnu"

%"class.Ipopt::DenseVector" = type { %"class.Ipopt::Vector.base", ptr, ptr, ptr, i8, i8, double }
%"class.Ipopt::Vector.base" = type <{ %"class.Ipopt::TaggedObject", %"class.Ipopt::SmartPtr", %"class.Ipopt::CachedResults", i32, [4 x i8], double, i32, [4 x i8], double, i32, [4 x i8], double, i32, [4 x i8], double, i32, [4 x i8], double, i32, [4 x i8], double, i32, [4 x i8], double, i32, i8 }>
%"class.Ipopt::TaggedObject" = type { %"class.Ipopt::ReferencedObject.base", %"class.Ipopt::Subject", i32, i32 }
%"class.Ipopt::ReferencedObject.base" = type <{ ptr, i32 }>
%"class.Ipopt::Subject" = type { ptr, %"class.std::vector" }
%"class.std::vector" = type { %"struct.std::_Vector_base" }
%"struct.std::_Vector_base" = type { %"struct.std::_Vector_base<Ipopt::Observer *, std::allocator<Ipopt::Observer *>>::_Vector_impl" }
%"struct.std::_Vector_base<Ipopt::Observer *, std::allocator<Ipopt::Observer *>>::_Vector_impl" = type { %"struct.std::_Vector_base<Ipopt::Observer *, std::allocator<Ipopt::Observer *>>::_Vector_impl_data" }
%"struct.std::_Vector_base<Ipopt::Observer *, std::allocator<Ipopt::Observer *>>::_Vector_impl_data" = type { ptr, ptr, ptr }
%"class.Ipopt::SmartPtr" = type { ptr }
%"class.Ipopt::CachedResults" = type { ptr, i32, ptr }

; Function Attrs: mustprogress nounwind uwtable
define linkonce_odr void @_ZNK5Ipopt16DenseVectorSpace19FreeInternalStorageEPd(ptr noundef nonnull align 8 dereferenceable(160) %0, ptr noundef %1) #1 comdat align 2 {
  %3 = alloca ptr, align 8
  %4 = alloca ptr, align 8
  store ptr %0, ptr %3, align 8
  store ptr %1, ptr %4, align 8
  %5 = load ptr, ptr %4, align 8
  %6 = icmp eq ptr %5, null
  br i1 %6, label %8, label %7

7:                                                ; preds = %2
  call void @_ZdaPv(ptr noundef %5) #13
  br label %8

8:                                                ; preds = %7, %2
  ret void
}

; Function Attrs: mustprogress uwtable
define void @_ZN5Ipopt11DenseVector7SetImplEd(ptr noundef nonnull align 8 dereferenceable(248) %0, double noundef %1) unnamed_addr #0 align 2 {
  %3 = alloca ptr, align 8
  %4 = alloca double, align 8
  store ptr %0, ptr %3, align 8
  store double %1, ptr %4, align 8
  %5 = load ptr, ptr %3, align 8
  %6 = getelementptr inbounds %"class.Ipopt::DenseVector", ptr %5, i32 0, i32 4
  store i8 1, ptr %6, align 8
  %7 = getelementptr inbounds %"class.Ipopt::DenseVector", ptr %5, i32 0, i32 5
  store i8 1, ptr %7, align 1
  %8 = load double, ptr %4, align 8
  %9 = getelementptr inbounds %"class.Ipopt::DenseVector", ptr %5, i32 0, i32 6
  store double %8, ptr %9, align 8
  %10 = getelementptr inbounds %"class.Ipopt::DenseVector", ptr %5, i32 0, i32 2
  %11 = load ptr, ptr %10, align 8
  %12 = icmp ne ptr %11, null
  br i1 %12, label %13, label %19

13:                                               ; preds = %2
  %14 = getelementptr inbounds %"class.Ipopt::DenseVector", ptr %5, i32 0, i32 1
  %15 = load ptr, ptr %14, align 8
  %16 = getelementptr inbounds %"class.Ipopt::DenseVector", ptr %5, i32 0, i32 2
  %17 = load ptr, ptr %16, align 8
  call void @_ZNK5Ipopt16DenseVectorSpace19FreeInternalStorageEPd(ptr noundef nonnull align 8 dereferenceable(160) %15, ptr noundef %17)
  %18 = getelementptr inbounds %"class.Ipopt::DenseVector", ptr %5, i32 0, i32 2
  store ptr null, ptr %18, align 8
  br label %19

19:                                               ; preds = %13, %2
  ret void
}