; Function Attrs: mustprogress nounwind uwtable
define void @_ZN5Ipopt11DenseVector7SetImplEd(ptr nocapture noundef nonnull align 8 dereferenceable(248) %0, double noundef %1) unnamed_addr #1 align 2 {
  %3 = getelementptr inbounds i8, ptr %0, i64 232
  store i8 1, ptr %3, align 8
  %4 = getelementptr inbounds i8, ptr %0, i64 233
  store i8 1, ptr %4, align 1
  %5 = getelementptr inbounds i8, ptr %0, i64 240
  store double %1, ptr %5, align 8
  %6 = getelementptr inbounds i8, ptr %0, i64 216
  %7 = load ptr, ptr %6, align 8
  %.not = icmp eq ptr %7, null
  br i1 %.not, label %8, label %_ZNK5Ipopt16DenseVectorSpace19FreeInternalStorageEPd.exit

_ZNK5Ipopt16DenseVectorSpace19FreeInternalStorageEPd.exit: ; preds = %2
  tail call void @_ZdaPv(ptr noundef nonnull %7) #16
  store ptr null, ptr %6, align 8
  br label %8

8:                                                ; preds = %_ZNK5Ipopt16DenseVectorSpace19FreeInternalStorageEPd.exit, %2
  ret void
}